; Function Attrs: nounwind uwtable
define void @Min_ManTest4(ptr noundef %0) local_unnamed_addr #0 {
  %2 = getelementptr i8, ptr %0, i64 72
  %.val = load ptr, ptr %2, align 8, !tbaa !43
  %3 = getelementptr i8, ptr %.val, i64 4
  %.val.val = load i32, ptr %3, align 4, !tbaa !30
  %4 = tail call noalias dereferenceable_or_null(16) ptr @malloc(i64 noundef 16) #26
  %5 = add i32 %.val.val, -1
  %or.cond.i.i = icmp ult i32 %5, 15
  %spec.store.select.i.i = select i1 %or.cond.i.i, i32 16, i32 %.val.val
  %6 = getelementptr inbounds nuw i8, ptr %4, i64 4
  store i32 %spec.store.select.i.i, ptr %4, align 8, !tbaa !33
  %.not.i.i = icmp eq i32 %spec.store.select.i.i, 0
  br i1 %.not.i.i, label %Vec_IntAlloc.exit.i, label %7

7:                                                ; preds = %1
  %8 = sext i32 %spec.store.select.i.i to i64
  %9 = shl nsw i64 %8, 2
  %10 = tail call noalias ptr @malloc(i64 noundef %9) #26
  br label %Vec_IntAlloc.exit.i

Vec_IntAlloc.exit.i:                              ; preds = %7, %1
  %11 = phi ptr [ %10, %7 ], [ null, %1 ]
  %12 = getelementptr inbounds nuw i8, ptr %4, i64 8
  store ptr %11, ptr %12, align 8, !tbaa !32
  store i32 %.val.val, ptr %6, align 4, !tbaa !30
  %13 = icmp sgt i32 %.val.val, 0
  br i1 %13, label %.lr.ph.preheader.i, label %Vec_IntStartNatural.exit

.lr.ph.preheader.i:                               ; preds = %Vec_IntAlloc.exit.i
  %wide.trip.count.i = zext nneg i32 %.val.val to i64
  br label %.lr.ph.i

.lr.ph.i:                                         ; preds = %.lr.ph.i, %.lr.ph.preheader.i
  %indvars.iv.i = phi i64 [ 0, %.lr.ph.preheader.i ], [ %indvars.iv.next.i, %.lr.ph.i ]
  %14 = getelementptr inbounds nuw i32, ptr %11, i64 %indvars.iv.i
  %15 = trunc nuw nsw i64 %indvars.iv.i to i32
  store i32 %15, ptr %14, align 4, !tbaa !35
  %indvars.iv.next.i = add nuw nsw i64 %indvars.iv.i, 1
  %exitcond.not.i = icmp eq i64 %indvars.iv.next.i, %wide.trip.count.i
  br i1 %exitcond.not.i, label %Vec_IntStartNatural.exit, label %.lr.ph.i, !llvm.loop !83

Vec_IntStartNatural.exit:                         ; preds = %.lr.ph.i, %Vec_IntAlloc.exit.i
  tail call void @Min_ManTest3(ptr noundef %0, ptr noundef nonnull %4)
  %16 = load ptr, ptr %12, align 8, !tbaa !32
  %.not.i = icmp eq ptr %16, null
  br i1 %.not.i, label %Vec_IntFree.exit, label %17

17:                                               ; preds = %Vec_IntStartNatural.exit
  tail call void @free(ptr noundef nonnull %16) #27
  br label %Vec_IntFree.exit

Vec_IntFree.exit:                                 ; preds = %Vec_IntStartNatural.exit, %17
  tail call void @free(ptr noundef nonnull %4) #27
  ret void
}